target datalayout = "e-m:e-p270:32:32-p271:32:32-p272:64:64-i64:64-i128:128-f80:128-n8:16:32:64-S128"
target triple = "x86_64-pc-linux-gnu"

%"class.std::__cxx11::basic_string" = type { %"struct.std::__cxx11::basic_string<char>::_Alloc_hider", i64, %union.anon }
%"struct.std::__cxx11::basic_string<char>::_Alloc_hider" = type { ptr }
%union.anon = type { i64, [8 x i8] }
%"class.std::__cxx11::_List_base.4" = type { %"struct.std::__cxx11::_List_base<std::__cxx11::basic_string<char>, std::allocator<std::__cxx11::basic_string<char>>>::_List_impl" }
%"struct.std::__cxx11::_List_base<std::__cxx11::basic_string<char>, std::allocator<std::__cxx11::basic_string<char>>>::_List_impl" = type { %"struct.std::__detail::_List_node_header" }
%"struct.std::__detail::_List_node_header" = type { %"struct.std::__detail::_List_node_base", i64 }
%"struct.std::__detail::_List_node_base" = type { ptr, ptr }
%"class.std::allocator" = type { i8 }
%"struct.std::_List_iterator.11" = type { ptr }
%"struct.std::_List_node" = type { %"struct.std::__detail::_List_node_base", %"struct.__gnu_cxx::__aligned_membuf" }
%"struct.__gnu_cxx::__aligned_membuf" = type { [32 x i8] }

@_ZTIN3nix10UsageErrorE = linkonce_odr constant { ptr, ptr, ptr } { ptr getelementptr inbounds (ptr, ptr @_ZTVN10__cxxabiv120__si_class_type_infoE, i64 2), ptr @_ZTSN3nix10UsageErrorE, ptr @_ZTIN3nix5ErrorE }, comdat, align 8
@.str.69 = private unnamed_addr constant [27 x i8] c"'%1%' requires an argument\00", align 1

; Function Attrs: mustprogress nounwind uwtable
define linkonce_odr noundef ptr @_ZN9__gnu_cxx16__aligned_membufINSt7__cxx1112basic_stringIcSt11char_traitsIcESaIcEEEE7_M_addrEv(ptr noundef nonnull align 8 dereferenceable(32) %0) #2 comdat align 2 {
  %2 = alloca ptr, align 8
  store ptr %0, ptr %2, align 8
  %3 = load ptr, ptr %2, align 8
  %4 = getelementptr inbounds %"struct.__gnu_cxx::__aligned_membuf", ptr %3, i32 0, i32 0
  ret ptr %4
}

; Function Attrs: mustprogress nounwind uwtable
define linkonce_odr noundef ptr @_ZN9__gnu_cxx16__aligned_membufINSt7__cxx1112basic_stringIcSt11char_traitsIcESaIcEEEE6_M_ptrEv(ptr noundef nonnull align 8 dereferenceable(32) %0) #2 comdat align 2 {
  %2 = alloca ptr, align 8
  store ptr %0, ptr %2, align 8
  %3 = load ptr, ptr %2, align 8
  %4 = call noundef ptr @_ZN9__gnu_cxx16__aligned_membufINSt7__cxx1112basic_stringIcSt11char_traitsIcESaIcEEEE7_M_addrEv(ptr noundef nonnull align 8 dereferenceable(32) %3) #1
  ret ptr %4
}

; Function Attrs: mustprogress nounwind uwtable
define linkonce_odr noundef ptr @_ZNSt10_List_nodeINSt7__cxx1112basic_stringIcSt11char_traitsIcESaIcEEEE9_M_valptrEv(ptr noundef nonnull align 8 dereferenceable(48) %0) #2 comdat align 2 {
  %2 = alloca ptr, align 8
  store ptr %0, ptr %2, align 8
  %3 = load ptr, ptr %2, align 8
  %4 = getelementptr inbounds %"struct.std::_List_node", ptr %3, i32 0, i32 1
  %5 = call noundef ptr @_ZN9__gnu_cxx16__aligned_membufINSt7__cxx1112basic_stringIcSt11char_traitsIcESaIcEEEE6_M_ptrEv(ptr noundef nonnull align 8 dereferenceable(32) %4) #1
  ret ptr %5
}

; Function Attrs: mustprogress nounwind uwtable
define linkonce_odr void @_ZNSt14_List_iteratorINSt7__cxx1112basic_stringIcSt11char_traitsIcESaIcEEEEC2EPNSt8__detail15_List_node_baseE(ptr noundef nonnull align 8 dereferenceable(8) %0, ptr noundef %1) unnamed_addr #2 comdat align 2 {
  %3 = alloca ptr, align 8
  %4 = alloca ptr, align 8
  store ptr %0, ptr %3, align 8
  store ptr %1, ptr %4, align 8
  %5 = load ptr, ptr %3, align 8
  %6 = getelementptr inbounds %"struct.std::_List_iterator.11", ptr %5, i32 0, i32 0
  %7 = load ptr, ptr %4, align 8
  store ptr %7, ptr %6, align 8
  ret void
}

; Function Attrs: mustprogress nounwind uwtable
define linkonce_odr noundef nonnull align 8 dereferenceable(32) ptr @_ZNKSt14_List_iteratorINSt7__cxx1112basic_stringIcSt11char_traitsIcESaIcEEEEdeEv(ptr noundef nonnull align 8 dereferenceable(8) %0) #2 comdat align 2 {
  %2 = alloca ptr, align 8
  store ptr %0, ptr %2, align 8
  %3 = load ptr, ptr %2, align 8
  %4 = getelementptr inbounds %"struct.std::_List_iterator.11", ptr %3, i32 0, i32 0
  %5 = load ptr, ptr %4, align 8
  %6 = call noundef ptr @_ZNSt10_List_nodeINSt7__cxx1112basic_stringIcSt11char_traitsIcESaIcEEEE9_M_valptrEv(ptr noundef nonnull align 8 dereferenceable(48) %5)
  ret ptr %6
}

; Function Attrs: mustprogress nounwind uwtable
define linkonce_odr ptr @_ZNSt14_List_iteratorINSt7__cxx1112basic_stringIcSt11char_traitsIcESaIcEEEEppEi(ptr noundef nonnull align 8 dereferenceable(8) %0, i32 noundef %1) #2 comdat align 2 {
  %3 = alloca %"struct.std::_List_iterator.11", align 8
  %4 = alloca ptr, align 8
  %5 = alloca i32, align 4
  store ptr %0, ptr %4, align 8
  store i32 %1, ptr %5, align 4
  %6 = load ptr, ptr %4, align 8
  call void @llvm.memcpy.p0.p0.i64(ptr align 8 %3, ptr align 8 %6, i64 8, i1 false)
  %7 = getelementptr inbounds %"struct.std::_List_iterator.11", ptr %6, i32 0, i32 0
  %8 = load ptr, ptr %7, align 8
  %9 = getelementptr inbounds %"struct.std::__detail::_List_node_base", ptr %8, i32 0, i32 0
  %10 = load ptr, ptr %9, align 8
  %11 = getelementptr inbounds %"struct.std::_List_iterator.11", ptr %6, i32 0, i32 0
  store ptr %10, ptr %11, align 8
  %12 = getelementptr inbounds %"struct.std::_List_iterator.11", ptr %3, i32 0, i32 0
  %13 = load ptr, ptr %12, align 8
  ret ptr %13
}

; Function Attrs: mustprogress nounwind uwtable
define linkonce_odr noundef zeroext i1 @_ZSteqRKSt14_List_iteratorINSt7__cxx1112basic_stringIcSt11char_traitsIcESaIcEEEES8_(ptr noundef nonnull align 8 dereferenceable(8) %0, ptr noundef nonnull align 8 dereferenceable(8) %1) #2 comdat {
  %3 = alloca ptr, align 8
  %4 = alloca ptr, align 8
  store ptr %0, ptr %3, align 8
  store ptr %1, ptr %4, align 8
  %5 = load ptr, ptr %3, align 8
  %6 = getelementptr inbounds %"struct.std::_List_iterator.11", ptr %5, i32 0, i32 0
  %7 = load ptr, ptr %6, align 8
  %8 = load ptr, ptr %4, align 8
  %9 = getelementptr inbounds %"struct.std::_List_iterator.11", ptr %8, i32 0, i32 0
  %10 = load ptr, ptr %9, align 8
  %11 = icmp eq ptr %7, %10
  ret i1 %11
}

; Function Attrs: mustprogress nounwind uwtable
define linkonce_odr ptr @_ZNSt7__cxx114listINS_12basic_stringIcSt11char_traitsIcESaIcEEESaIS5_EE3endEv(ptr noundef nonnull align 8 dereferenceable(24) %0) #2 comdat align 2 {
  %2 = alloca %"struct.std::_List_iterator.11", align 8
  %3 = alloca ptr, align 8
  store ptr %0, ptr %3, align 8
  %4 = load ptr, ptr %3, align 8
  %5 = getelementptr inbounds %"class.std::__cxx11::_List_base.4", ptr %4, i32 0, i32 0
  %6 = getelementptr inbounds %"struct.std::__cxx11::_List_base<std::__cxx11::basic_string<char>, std::allocator<std::__cxx11::basic_string<char>>>::_List_impl", ptr %5, i32 0, i32 0
  call void @_ZNSt14_List_iteratorINSt7__cxx1112basic_stringIcSt11char_traitsIcESaIcEEEEC2EPNSt8__detail15_List_node_baseE(ptr noundef nonnull align 8 dereferenceable(8) %2, ptr noundef %6) #1
  %7 = getelementptr inbounds %"struct.std::_List_iterator.11", ptr %2, i32 0, i32 0
  %8 = load ptr, ptr %7, align 8
  ret ptr %8
}

; Function Attrs: mustprogress uwtable
define internal void @_ZL7needArgRSt14_List_iteratorINSt7__cxx1112basic_stringIcSt11char_traitsIcESaIcEEEERNS0_4listIS5_SaIS5_EEERKS5_(ptr dead_on_unwind noalias writable sret(%"class.std::__cxx11::basic_string") align 8 %0, ptr noundef nonnull align 8 dereferenceable(8) %1, ptr noundef nonnull align 8 dereferenceable(24) %2, ptr noundef nonnull align 8 dereferenceable(32) %3) #5 personality ptr @__gxx_personality_v0 {
  %5 = alloca ptr, align 8
  %6 = alloca ptr, align 8
  %7 = alloca ptr, align 8
  %8 = alloca ptr, align 8
  %9 = alloca %"struct.std::_List_iterator.11", align 8
  %10 = alloca %"class.std::__cxx11::basic_string", align 8
  %11 = alloca %"class.std::allocator", align 1
  %12 = alloca ptr, align 8
  %13 = alloca i32, align 4
  %14 = alloca i1, align 1
  %15 = alloca %"struct.std::_List_iterator.11", align 8
  store ptr %0, ptr %5, align 8
  store ptr %1, ptr %6, align 8
  store ptr %2, ptr %7, align 8
  store ptr %3, ptr %8, align 8
  %16 = load ptr, ptr %6, align 8
  %17 = load ptr, ptr %7, align 8
  %18 = call ptr @_ZNSt7__cxx114listINS_12basic_stringIcSt11char_traitsIcESaIcEEESaIS5_EE3endEv(ptr noundef nonnull align 8 dereferenceable(24) %17) #1
  %19 = getelementptr inbounds %"struct.std::_List_iterator.11", ptr %9, i32 0, i32 0
  store ptr %18, ptr %19, align 8
  %20 = call noundef zeroext i1 @_ZSteqRKSt14_List_iteratorINSt7__cxx1112basic_stringIcSt11char_traitsIcESaIcEEEES8_(ptr noundef nonnull align 8 dereferenceable(8) %16, ptr noundef nonnull align 8 dereferenceable(8) %9) #1
  br i1 %20, label %21, label %38

21:                                               ; preds = %4
  store i1 true, ptr %14, align 1
  %22 = call ptr @__cxa_allocate_exception(i64 376) #1
  call void @_ZNSaIcEC1Ev(ptr noundef nonnull align 1 dereferenceable(1) %11) #1
  invoke void @_ZNSt7__cxx1112basic_stringIcSt11char_traitsIcESaIcEEC2IS3_EEPKcRKS3_(ptr noundef nonnull align 8 dereferenceable(32) %10, ptr noundef @.str.69, ptr noundef nonnull align 1 dereferenceable(1) %11)
          to label %23 unwind label %26

23:                                               ; preds = %21
  %24 = load ptr, ptr %8, align 8
  invoke void @_ZN3nix10UsageErrorCI2NS_9BaseErrorEIJNSt7__cxx1112basic_stringIcSt11char_traitsIcESaIcEEEEEERKS6_DpRKT_(ptr noundef nonnull align 8 dereferenceable(376) %22, ptr noundef nonnull align 8 dereferenceable(32) %10, ptr noundef nonnull align 8 dereferenceable(32) %24)
          to label %25 unwind label %30

25:                                               ; preds = %23
  store i1 false, ptr %14, align 1
  invoke void @__cxa_throw(ptr %22, ptr @_ZTIN3nix10UsageErrorE, ptr @_ZN3nix10UsageErrorD2Ev) #23
          to label %48 unwind label %30

26:                                               ; preds = %21
  %27 = landingpad { ptr, i32 }
          cleanup
  %28 = extractvalue { ptr, i32 } %27, 0
  store ptr %28, ptr %12, align 8
  %29 = extractvalue { ptr, i32 } %27, 1
  store i32 %29, ptr %13, align 4
  br label %34

30:                                               ; preds = %25, %23
  %31 = landingpad { ptr, i32 }
          cleanup
  %32 = extractvalue { ptr, i32 } %31, 0
  store ptr %32, ptr %12, align 8
  %33 = extractvalue { ptr, i32 } %31, 1
  store i32 %33, ptr %13, align 4
  call void @_ZNSt7__cxx1112basic_stringIcSt11char_traitsIcESaIcEED2Ev(ptr noundef nonnull align 8 dereferenceable(32) %10) #1
  br label %34

34:                                               ; preds = %30, %26
  call void @_ZNSaIcED1Ev(ptr noundef nonnull align 1 dereferenceable(1) %11) #1
  %35 = load i1, ptr %14, align 1
  br i1 %35, label %36, label %37

36:                                               ; preds = %34
  call void @__cxa_free_exception(ptr %22) #1
  br label %37

37:                                               ; preds = %36, %34
  br label %43

38:                                               ; preds = %4
  %39 = load ptr, ptr %6, align 8
  %40 = call ptr @_ZNSt14_List_iteratorINSt7__cxx1112basic_stringIcSt11char_traitsIcESaIcEEEEppEi(ptr noundef nonnull align 8 dereferenceable(8) %39, i32 noundef 0) #1
  %41 = getelementptr inbounds %"struct.std::_List_iterator.11", ptr %15, i32 0, i32 0
  store ptr %40, ptr %41, align 8
  %42 = call noundef nonnull align 8 dereferenceable(32) ptr @_ZNKSt14_List_iteratorINSt7__cxx1112basic_stringIcSt11char_traitsIcESaIcEEEEdeEv(ptr noundef nonnull align 8 dereferenceable(8) %15) #1
  call void @_ZNSt7__cxx1112basic_stringIcSt11char_traitsIcESaIcEEC2ERKS4_(ptr noundef nonnull align 8 dereferenceable(32) %0, ptr noundef nonnull align 8 dereferenceable(32) %42)
  ret void

43:                                               ; preds = %37
  %44 = load ptr, ptr %12, align 8
  %45 = load i32, ptr %13, align 4
  %46 = insertvalue { ptr, i32 } poison, ptr %44, 0
  %47 = insertvalue { ptr, i32 } %46, i32 %45, 1
  resume { ptr, i32 } %47

48:                                               ; preds = %25
  unreachable
}