; Function Attrs: mustprogress uwtable
define internal fastcc void @_ZL7needArgRSt14_List_iteratorINSt7__cxx1112basic_stringIcSt11char_traitsIcESaIcEEEERNS0_4listIS5_SaIS5_EEERKS5_(ptr dead_on_unwind noalias writable align 8 %0, ptr nocapture noundef nonnull align 8 dereferenceable(8) %1, ptr noundef nonnull readnone align 8 dereferenceable(24) %2, ptr noundef nonnull align 8 dereferenceable(32) %3) unnamed_addr #5 personality ptr @__gxx_personality_v0 {
  %5 = alloca %"class.std::__cxx11::basic_string", align 8
  %6 = alloca %"class.std::allocator", align 1
  %7 = load ptr, ptr %1, align 8
  %8 = icmp eq ptr %7, %2
  br i1 %8, label %9, label %17

9:                                                ; preds = %4
  %10 = tail call ptr @__cxa_allocate_exception(i64 376) #29
  call void @_ZNSaIcEC1Ev(ptr noundef nonnull align 1 dereferenceable(1) %6) #29
  invoke void @_ZNSt7__cxx1112basic_stringIcSt11char_traitsIcESaIcEEC2IS3_EEPKcRKS3_(ptr noundef nonnull align 8 dereferenceable(32) %5, ptr noundef nonnull @.str.69, ptr noundef nonnull align 1 dereferenceable(1) %6)
          to label %11 unwind label %.thread

11:                                               ; preds = %9
  invoke void @_ZN3nix10UsageErrorCI2NS_9BaseErrorEIJNSt7__cxx1112basic_stringIcSt11char_traitsIcESaIcEEEEEERKS6_DpRKT_(ptr noundef nonnull align 8 dereferenceable(376) %10, ptr noundef nonnull align 8 dereferenceable(32) %5, ptr noundef nonnull align 8 dereferenceable(32) %3)
          to label %12 unwind label %14

12:                                               ; preds = %11
  invoke void @__cxa_throw(ptr nonnull %10, ptr nonnull @_ZTIN3nix10UsageErrorE, ptr nonnull @_ZN3nix10UsageErrorD2Ev) #30
          to label %21 unwind label %14

.thread:                                          ; preds = %9
  %13 = landingpad { ptr, i32 }
          cleanup
  call void @_ZNSaIcED1Ev(ptr noundef nonnull align 1 dereferenceable(1) %6) #29
  br label %16

14:                                               ; preds = %11, %12
  %.0 = phi i1 [ false, %12 ], [ true, %11 ]
  %15 = landingpad { ptr, i32 }
          cleanup
  call void @_ZNSt7__cxx1112basic_stringIcSt11char_traitsIcESaIcEED2Ev(ptr noundef nonnull align 8 dereferenceable(32) %5) #29
  call void @_ZNSaIcED1Ev(ptr noundef nonnull align 1 dereferenceable(1) %6) #29
  br i1 %.0, label %16, label %20

16:                                               ; preds = %.thread, %14
  %.pn13 = phi { ptr, i32 } [ %13, %.thread ], [ %15, %14 ]
  call void @__cxa_free_exception(ptr %10) #29
  br label %20

17:                                               ; preds = %4
  %18 = load ptr, ptr %7, align 8
  store ptr %18, ptr %1, align 8
  %19 = getelementptr inbounds i8, ptr %7, i64 16
  tail call void @_ZNSt7__cxx1112basic_stringIcSt11char_traitsIcESaIcEEC2ERKS4_(ptr noundef nonnull align 8 dereferenceable(32) %0, ptr noundef nonnull align 8 dereferenceable(32) %19)
  ret void

20:                                               ; preds = %14, %16
  %.pn12 = phi { ptr, i32 } [ %15, %14 ], [ %.pn13, %16 ]
  resume { ptr, i32 } %.pn12

21:                                               ; preds = %12
  unreachable
}